target datalayout = "e-m:e-p270:32:32-p271:32:32-p272:64:64-i64:64-i128:128-f80:128-n8:16:32:64-S128"
target triple = "x86_64-pc-linux-gnu"

%"class.Ipopt::DenseVector" = type { %"class.Ipopt::Vector.base", ptr, ptr, ptr, i8, i8, double }
%"class.Ipopt::Vector.base" = type <{ %"class.Ipopt::TaggedObject", %"class.Ipopt::SmartPtr", %"class.Ipopt::CachedResults", i32, [4 x i8], double, i32, [4 x i8], double, i32, [4 x i8], double, i32, [4 x i8], double, i32, [4 x i8], double, i32, [4 x i8], double, i32, [4 x i8], double, i32, i8 }>
%"class.Ipopt::TaggedObject" = type { %"class.Ipopt::ReferencedObject.base", %"class.Ipopt::Subject", i32, i32 }
%"class.Ipopt::ReferencedObject.base" = type <{ ptr, i32 }>
%"class.Ipopt::Subject" = type { ptr, %"class.std::vector" }
%"class.std::vector" = type { %"struct.std::_Vector_base" }
%"struct.std::_Vector_base" = type { %"struct.std::_Vector_base<Ipopt::Observer *, std::allocator<Ipopt::Observer *>>::_Vector_impl" }
%"struct.std::_Vector_base<Ipopt::Observer *, std::allocator<Ipopt::Observer *>>::_Vector_impl" = type { %"struct.std::_Vector_base<Ipopt::Observer *, std::allocator<Ipopt::Observer *>>::_Vector_impl_data" }
%"struct.std::_Vector_base<Ipopt::Observer *, std::allocator<Ipopt::Observer *>>::_Vector_impl_data" = type { ptr, ptr, ptr }
%"class.Ipopt::SmartPtr" = type { ptr }
%"class.Ipopt::CachedResults" = type { ptr, i32, ptr }
%"class.Ipopt::Vector" = type <{ %"class.Ipopt::TaggedObject", %"class.Ipopt::SmartPtr", %"class.Ipopt::CachedResults", i32, [4 x i8], double, i32, [4 x i8], double, i32, [4 x i8], double, i32, [4 x i8], double, i32, [4 x i8], double, i32, [4 x i8], double, i32, [4 x i8], double, i32, i8, [3 x i8] }>
%"class.Ipopt::VectorSpace" = type { %"class.Ipopt::ReferencedObject.base", i32 }

; Function Attrs: mustprogress nounwind uwtable
define linkonce_odr noundef i32 @_ZNK5Ipopt11VectorSpace3DimEv(ptr noundef nonnull align 8 dereferenceable(16) %0) #1 comdat align 2 {
  %2 = alloca ptr, align 8
  store ptr %0, ptr %2, align 8
  %3 = load ptr, ptr %2, align 8
  %4 = getelementptr inbounds %"class.Ipopt::VectorSpace", ptr %3, i32 0, i32 1
  %5 = load i32, ptr %4, align 4
  ret i32 %5
}

; Function Attrs: mustprogress nounwind uwtable
define linkonce_odr noundef ptr @_ZNK5Ipopt8SmartPtrIKNS_11VectorSpaceEEptEv(ptr noundef nonnull align 8 dereferenceable(8) %0) #1 comdat align 2 {
  %2 = alloca ptr, align 8
  store ptr %0, ptr %2, align 8
  %3 = load ptr, ptr %2, align 8
  %4 = getelementptr inbounds %"class.Ipopt::SmartPtr", ptr %3, i32 0, i32 0
  %5 = load ptr, ptr %4, align 8
  ret ptr %5
}

; Function Attrs: mustprogress uwtable
define linkonce_odr noundef i32 @_ZNK5Ipopt6Vector3DimEv(ptr noundef nonnull align 8 dereferenceable(205) %0) #0 comdat align 2 {
  %2 = alloca ptr, align 8
  store ptr %0, ptr %2, align 8
  %3 = load ptr, ptr %2, align 8
  %4 = getelementptr inbounds %"class.Ipopt::Vector", ptr %3, i32 0, i32 1
  %5 = call noundef ptr @_ZNK5Ipopt8SmartPtrIKNS_11VectorSpaceEEptEv(ptr noundef nonnull align 8 dereferenceable(8) %4)
  %6 = call noundef i32 @_ZNK5Ipopt11VectorSpace3DimEv(ptr noundef nonnull align 8 dereferenceable(16) %5)
  ret i32 %6
}

; Function Attrs: mustprogress uwtable
define noundef double @_ZNK5Ipopt11DenseVector7DotImplERKNS_6VectorE(ptr noundef nonnull align 8 dereferenceable(248) %0, ptr noundef nonnull align 8 dereferenceable(205) %1) unnamed_addr #0 align 2 {
  %3 = alloca double, align 8
  %4 = alloca ptr, align 8
  %5 = alloca ptr, align 8
  %6 = alloca double, align 8
  %7 = alloca ptr, align 8
  store ptr %0, ptr %4, align 8
  store ptr %1, ptr %5, align 8
  %8 = load ptr, ptr %4, align 8
  %9 = load ptr, ptr %5, align 8
  store ptr %9, ptr %7, align 8
  %10 = call noundef i32 @_ZNK5Ipopt6Vector3DimEv(ptr noundef nonnull align 8 dereferenceable(205) %8)
  %11 = icmp eq i32 %10, 0
  br i1 %11, label %12, label %13

12:                                               ; preds = %2
  store double 0.000000e+00, ptr %3, align 8
  br label %63

13:                                               ; preds = %2
  %14 = getelementptr inbounds %"class.Ipopt::DenseVector", ptr %8, i32 0, i32 5
  %15 = load i8, ptr %14, align 1
  %16 = trunc i8 %15 to i1
  br i1 %16, label %17, label %40

17:                                               ; preds = %13
  %18 = load ptr, ptr %7, align 8
  %19 = getelementptr inbounds %"class.Ipopt::DenseVector", ptr %18, i32 0, i32 5
  %20 = load i8, ptr %19, align 1
  %21 = trunc i8 %20 to i1
  br i1 %21, label %22, label %32

22:                                               ; preds = %17
  %23 = call noundef i32 @_ZNK5Ipopt6Vector3DimEv(ptr noundef nonnull align 8 dereferenceable(205) %8)
  %24 = sitofp i32 %23 to double
  %25 = getelementptr inbounds %"class.Ipopt::DenseVector", ptr %8, i32 0, i32 6
  %26 = load double, ptr %25, align 8
  %27 = fmul double %24, %26
  %28 = load ptr, ptr %7, align 8
  %29 = getelementptr inbounds %"class.Ipopt::DenseVector", ptr %28, i32 0, i32 6
  %30 = load double, ptr %29, align 8
  %31 = fmul double %27, %30
  store double %31, ptr %6, align 8
  br label %39

32:                                               ; preds = %17
  %33 = call noundef i32 @_ZNK5Ipopt6Vector3DimEv(ptr noundef nonnull align 8 dereferenceable(205) %8)
  %34 = load ptr, ptr %7, align 8
  %35 = getelementptr inbounds %"class.Ipopt::DenseVector", ptr %34, i32 0, i32 2
  %36 = load ptr, ptr %35, align 8
  %37 = getelementptr inbounds %"class.Ipopt::DenseVector", ptr %8, i32 0, i32 6
  %38 = call noundef double @_ZN5Ipopt9IpBlasDotEiPKdiS1_i(i32 noundef %33, ptr noundef %36, i32 noundef 1, ptr noundef %37, i32 noundef 0)
  store double %38, ptr %6, align 8
  br label %39

39:                                               ; preds = %32, %22
  br label %61

40:                                               ; preds = %13
  %41 = load ptr, ptr %7, align 8
  %42 = getelementptr inbounds %"class.Ipopt::DenseVector", ptr %41, i32 0, i32 5
  %43 = load i8, ptr %42, align 1
  %44 = trunc i8 %43 to i1
  br i1 %44, label %45, label %52

45:                                               ; preds = %40
  %46 = call noundef i32 @_ZNK5Ipopt6Vector3DimEv(ptr noundef nonnull align 8 dereferenceable(205) %8)
  %47 = load ptr, ptr %7, align 8
  %48 = getelementptr inbounds %"class.Ipopt::DenseVector", ptr %47, i32 0, i32 6
  %49 = getelementptr inbounds %"class.Ipopt::DenseVector", ptr %8, i32 0, i32 2
  %50 = load ptr, ptr %49, align 8
  %51 = call noundef double @_ZN5Ipopt9IpBlasDotEiPKdiS1_i(i32 noundef %46, ptr noundef %48, i32 noundef 0, ptr noundef %50, i32 noundef 1)
  store double %51, ptr %6, align 8
  br label %60

52:                                               ; preds = %40
  %53 = call noundef i32 @_ZNK5Ipopt6Vector3DimEv(ptr noundef nonnull align 8 dereferenceable(205) %8)
  %54 = load ptr, ptr %7, align 8
  %55 = getelementptr inbounds %"class.Ipopt::DenseVector", ptr %54, i32 0, i32 2
  %56 = load ptr, ptr %55, align 8
  %57 = getelementptr inbounds %"class.Ipopt::DenseVector", ptr %8, i32 0, i32 2
  %58 = load ptr, ptr %57, align 8
  %59 = call noundef double @_ZN5Ipopt9IpBlasDotEiPKdiS1_i(i32 noundef %53, ptr noundef %56, i32 noundef 1, ptr noundef %58, i32 noundef 1)
  store double %59, ptr %6, align 8
  br label %60

60:                                               ; preds = %52, %45
  br label %61

61:                                               ; preds = %60, %39
  %62 = load double, ptr %6, align 8
  store double %62, ptr %3, align 8
  br label %63

63:                                               ; preds = %61, %12
  %64 = load double, ptr %3, align 8
  ret double %64
}