; Function Attrs: mustprogress uwtable
define noundef double @_ZNK5Ipopt11DenseVector7DotImplERKNS_6VectorE(ptr noundef nonnull align 8 dereferenceable(248) %0, ptr noundef nonnull align 8 dereferenceable(205) %1) unnamed_addr #0 align 2 {
  %3 = getelementptr inbounds i8, ptr %0, i64 56
  %4 = load ptr, ptr %3, align 8
  %5 = getelementptr inbounds i8, ptr %4, i64 12
  %6 = load i32, ptr %5, align 4
  %7 = icmp eq i32 %6, 0
  br i1 %7, label %41, label %8

8:                                                ; preds = %2
  %9 = getelementptr inbounds i8, ptr %0, i64 233
  %10 = load i8, ptr %9, align 1
  %11 = and i8 %10, 1
  %.not = icmp eq i8 %11, 0
  %12 = getelementptr inbounds i8, ptr %1, i64 233
  %13 = load i8, ptr %12, align 1
  %14 = and i8 %13, 1
  %.not11 = icmp eq i8 %14, 0
  br i1 %.not, label %29, label %15

15:                                               ; preds = %8
  br i1 %.not11, label %24, label %16

16:                                               ; preds = %15
  %17 = sitofp i32 %6 to double
  %18 = getelementptr inbounds i8, ptr %0, i64 240
  %19 = load double, ptr %18, align 8
  %20 = fmul double %19, %17
  %21 = getelementptr inbounds i8, ptr %1, i64 240
  %22 = load double, ptr %21, align 8
  %23 = fmul double %20, %22
  br label %41

24:                                               ; preds = %15
  %25 = getelementptr inbounds i8, ptr %1, i64 216
  %26 = load ptr, ptr %25, align 8
  %27 = getelementptr inbounds i8, ptr %0, i64 240
  %28 = tail call noundef double @_ZN5Ipopt9IpBlasDotEiPKdiS1_i(i32 noundef %6, ptr noundef %26, i32 noundef 1, ptr noundef nonnull %27, i32 noundef 0)
  br label %41

29:                                               ; preds = %8
  br i1 %.not11, label %35, label %30

30:                                               ; preds = %29
  %31 = getelementptr inbounds i8, ptr %1, i64 240
  %32 = getelementptr inbounds i8, ptr %0, i64 216
  %33 = load ptr, ptr %32, align 8
  %34 = tail call noundef double @_ZN5Ipopt9IpBlasDotEiPKdiS1_i(i32 noundef %6, ptr noundef nonnull %31, i32 noundef 0, ptr noundef %33, i32 noundef 1)
  br label %41

35:                                               ; preds = %29
  %36 = getelementptr inbounds i8, ptr %1, i64 216
  %37 = load ptr, ptr %36, align 8
  %38 = getelementptr inbounds i8, ptr %0, i64 216
  %39 = load ptr, ptr %38, align 8
  %40 = tail call noundef double @_ZN5Ipopt9IpBlasDotEiPKdiS1_i(i32 noundef %6, ptr noundef %37, i32 noundef 1, ptr noundef %39, i32 noundef 1)
  br label %41

41:                                               ; preds = %24, %16, %35, %30, %2
  %.0 = phi double [ 0.000000e+00, %2 ], [ %23, %16 ], [ %28, %24 ], [ %34, %30 ], [ %40, %35 ]
  ret double %.0
}